; Function Attrs: nounwind uwtable
define dso_local void @repo_set_compat_hash_algo(ptr noundef %0, i32 noundef %1) local_unnamed_addr #0 {
  %3 = getelementptr inbounds nuw i8, ptr %0, i64 400
  %4 = load ptr, ptr %3, align 8, !tbaa !33
  br label %5

5:                                                ; preds = %7, %2
  %.0811.i = phi i64 [ 0, %2 ], [ %8, %7 ]
  %6 = getelementptr inbounds nuw [3 x %struct.git_hash_algo], ptr @hash_algos, i64 0, i64 %.0811.i
  %.not.i = icmp eq ptr %4, %6
  br i1 %.not.i, label %.split.loop.exit9.i, label %7

7:                                                ; preds = %5
  %8 = add nuw nsw i64 %.0811.i, 1
  %exitcond.not.i = icmp eq i64 %8, 3
  br i1 %exitcond.not.i, label %hash_algo_by_ptr.exit, label %5, !llvm.loop !67

.split.loop.exit9.i:                              ; preds = %5
  %9 = trunc nuw nsw i64 %.0811.i to i32
  br label %hash_algo_by_ptr.exit

hash_algo_by_ptr.exit:                            ; preds = %7, %.split.loop.exit9.i
  %.2.i = phi i32 [ %9, %.split.loop.exit9.i ], [ 0, %7 ]
  %10 = icmp eq i32 %.2.i, %1
  br i1 %10, label %11, label %12

11:                                               ; preds = %hash_algo_by_ptr.exit
  tail call void (ptr, i32, ptr, ...) @BUG_fl(ptr noundef nonnull @.str, i32 noundef 193, ptr noundef nonnull @.str.5) #11
  unreachable

12:                                               ; preds = %hash_algo_by_ptr.exit
  %.not = icmp eq i32 %1, 0
  %13 = sext i32 %1 to i64
  %14 = getelementptr inbounds [3 x %struct.git_hash_algo], ptr @hash_algos, i64 0, i64 %13
  %15 = select i1 %.not, ptr null, ptr %14
  %16 = getelementptr inbounds nuw i8, ptr %0, i64 408
  store ptr %15, ptr %16, align 8, !tbaa !69
  br i1 %.not, label %19, label %17

17:                                               ; preds = %12
  %18 = tail call i32 @repo_read_loose_object_map(ptr noundef nonnull %0) #10
  br label %19

19:                                               ; preds = %17, %12
  ret void
}